target datalayout = "e-m:e-p270:32:32-p271:32:32-p272:64:64-i64:64-i128:128-f80:128-n8:16:32:64-S128"
target triple = "x86_64-pc-linux-gnu"

; Function Attrs: nounwind uwtable
define i32 @H5P__decode_hsize_t(ptr noundef %0, ptr noundef %1) #0 {
  %3 = alloca ptr, align 8
  %4 = alloca ptr, align 8
  %5 = alloca ptr, align 8
  %6 = alloca ptr, align 8
  %7 = alloca i64, align 8
  %8 = alloca i32, align 4
  %9 = alloca i64, align 8
  store ptr %0, ptr %3, align 8
  store ptr %1, ptr %4, align 8
  %10 = load ptr, ptr %4, align 8
  store ptr %10, ptr %5, align 8
  %11 = load ptr, ptr %3, align 8
  store ptr %11, ptr %6, align 8
  %12 = load ptr, ptr %6, align 8
  %13 = load ptr, ptr %12, align 8
  %14 = getelementptr inbounds i8, ptr %13, i32 1
  store ptr %14, ptr %12, align 8
  %15 = load i8, ptr %13, align 1
  %16 = zext i8 %15 to i32
  store i32 %16, ptr %8, align 4
  br label %17

17:                                               ; preds = %2
  store i64 0, ptr %7, align 8
  %18 = load i32, ptr %8, align 4
  %19 = load ptr, ptr %6, align 8
  %20 = load ptr, ptr %19, align 8
  %21 = zext i32 %18 to i64
  %22 = getelementptr inbounds i8, ptr %20, i64 %21
  store ptr %22, ptr %19, align 8
  store i64 0, ptr %9, align 8
  br label %23

23:                                               ; preds = %37, %17
  %24 = load i64, ptr %9, align 8
  %25 = load i32, ptr %8, align 4
  %26 = zext i32 %25 to i64
  %27 = icmp ult i64 %24, %26
  br i1 %27, label %28, label %40

28:                                               ; preds = %23
  %29 = load i64, ptr %7, align 8
  %30 = shl i64 %29, 8
  %31 = load ptr, ptr %6, align 8
  %32 = load ptr, ptr %31, align 8
  %33 = getelementptr inbounds i8, ptr %32, i32 -1
  store ptr %33, ptr %31, align 8
  %34 = load i8, ptr %33, align 1
  %35 = zext i8 %34 to i64
  %36 = or i64 %30, %35
  store i64 %36, ptr %7, align 8
  br label %37

37:                                               ; preds = %28
  %38 = load i64, ptr %9, align 8
  %39 = add i64 %38, 1
  store i64 %39, ptr %9, align 8
  br label %23

40:                                               ; preds = %23
  %41 = load i32, ptr %8, align 4
  %42 = load ptr, ptr %6, align 8
  %43 = load ptr, ptr %42, align 8
  %44 = zext i32 %41 to i64
  %45 = getelementptr inbounds i8, ptr %43, i64 %44
  store ptr %45, ptr %42, align 8
  br label %46

46:                                               ; preds = %40
  br label %47

47:                                               ; preds = %46
  %48 = load i64, ptr %7, align 8
  %49 = load ptr, ptr %5, align 8
  store i64 %48, ptr %49, align 8
  br label %50

50:                                               ; preds = %47
  ret i32 0
}