; Function Attrs: nofree norecurse nosync nounwind memory(read, argmem: readwrite, inaccessiblemem: none) uwtable
define noundef i32 @H5P__decode_hsize_t(ptr noundef captures(none) %0, ptr noundef writeonly captures(none) %1) local_unnamed_addr #4 {
  %3 = load ptr, ptr %0, align 8
  %4 = getelementptr inbounds nuw i8, ptr %3, i64 1
  store ptr %4, ptr %0, align 8
  %5 = load i8, ptr %3, align 1
  %6 = zext i8 %5 to i64
  %7 = getelementptr inbounds nuw i8, ptr %4, i64 %6
  %.not = icmp eq i8 %5, 0
  br i1 %.not, label %._crit_edge, label %.lr.ph

.lr.ph:                                           ; preds = %2, %.lr.ph
  %8 = phi ptr [ %10, %.lr.ph ], [ %7, %2 ]
  %.016 = phi i64 [ %14, %.lr.ph ], [ 0, %2 ]
  %.01315 = phi i64 [ %13, %.lr.ph ], [ 0, %2 ]
  %9 = shl i64 %.01315, 8
  %10 = getelementptr inbounds i8, ptr %8, i64 -1
  store ptr %10, ptr %0, align 8
  %11 = load i8, ptr %10, align 1
  %12 = zext i8 %11 to i64
  %13 = or disjoint i64 %9, %12
  %14 = add nuw nsw i64 %.016, 1
  %exitcond.not = icmp eq i64 %14, %6
  br i1 %exitcond.not, label %._crit_edge, label %.lr.ph

._crit_edge:                                      ; preds = %.lr.ph, %2
  %15 = phi ptr [ %7, %2 ], [ %10, %.lr.ph ]
  %.013.lcssa = phi i64 [ 0, %2 ], [ %13, %.lr.ph ]
  %16 = getelementptr inbounds nuw i8, ptr %15, i64 %6
  store ptr %16, ptr %0, align 8
  store i64 %.013.lcssa, ptr %1, align 8
  ret i32 0
}